; ModuleID = 'source-C-CXX/0/2095.c'
source_filename = "source-C-CXX/0/2095.c"
target datalayout = "e-m:e-p270:32:32-p271:32:32-p272:64:64-i64:64-f80:128-n8:16:32:64-S128"
target triple = "x86_64-pc-linux-gnu"

@sum = dso_local local_unnamed_addr global i32 0, align 4
@.str = private unnamed_addr constant [3 x i8] c"%d\00", align 1
@.str.2 = private unnamed_addr constant [4 x i8] c"%d\0A\00", align 1
@str = private unnamed_addr constant [2 x i8] c"1\00", align 1

; Function Attrs: nofree norecurse nosync nounwind readnone sspstrong uwtable
define dso_local i32 @panduansushu(i32 %0) local_unnamed_addr #0 {
  %2 = icmp sgt i32 %0, 2
  br i1 %2, label %3, label %10

3:                                                ; preds = %1, %7
  %4 = phi i32 [ %8, %7 ], [ 2, %1 ]
  %5 = srem i32 %0, %4
  %6 = icmp eq i32 %5, 0
  br i1 %6, label %10, label %7

7:                                                ; preds = %3
  %8 = add nuw nsw i32 %4, 1
  %9 = icmp eq i32 %8, %0
  br i1 %9, label %10, label %3, !llvm.loop !5

10:                                               ; preds = %7, %3, %1
  %11 = phi i32 [ 2, %1 ], [ %4, %3 ], [ %0, %7 ]
  %12 = sdiv i32 %0, 2
  %13 = icmp sgt i32 %11, %12
  %14 = zext i1 %13 to i32
  ret i32 %14
}

; Function Attrs: argmemonly mustprogress nofree nosync nounwind willreturn
declare void @llvm.lifetime.start.p0i8(i64 immarg, i8* nocapture) #1

; Function Attrs: argmemonly mustprogress nofree nosync nounwind willreturn
declare void @llvm.lifetime.end.p0i8(i64 immarg, i8* nocapture) #1

; Function Attrs: nofree nosync nounwind sspstrong uwtable
define dso_local void @fun(i32 %0, i32 %1) local_unnamed_addr #2 {
  %3 = icmp eq i32 %0, 1
  br i1 %3, label %4, label %7

4:                                                ; preds = %2
  %5 = load i32, i32* @sum, align 4, !tbaa !7
  %6 = add nsw i32 %5, 1
  store i32 %6, i32* @sum, align 4, !tbaa !7
  br label %7

7:                                                ; preds = %4, %2
  %8 = icmp sgt i32 %1, %0
  br i1 %8, label %18, label %9

9:                                                ; preds = %7, %15
  %10 = phi i32 [ %16, %15 ], [ %1, %7 ]
  %11 = srem i32 %0, %10
  %12 = sdiv i32 %0, %10
  %13 = icmp eq i32 %11, 0
  br i1 %13, label %14, label %15

14:                                               ; preds = %9
  tail call void @fun(i32 %12, i32 %10)
  br label %15

15:                                               ; preds = %9, %14
  %16 = add i32 %10, 1
  %17 = icmp eq i32 %10, %0
  br i1 %17, label %18, label %9, !llvm.loop !11

18:                                               ; preds = %15, %7
  ret void
}

; Function Attrs: nofree nounwind sspstrong uwtable
define dso_local void @main() local_unnamed_addr #3 {
  %1 = alloca [100 x i32], align 16
  %2 = alloca i32, align 4
  %3 = bitcast [100 x i32]* %1 to i8*
  call void @llvm.lifetime.start.p0i8(i64 400, i8* nonnull %3) #6
  %4 = bitcast i32* %2 to i8*
  call void @llvm.lifetime.start.p0i8(i64 4, i8* nonnull %4) #6
  %5 = call i32 (i8*, ...) @__isoc99_scanf(i8* getelementptr inbounds ([3 x i8], [3 x i8]* @.str, i64 0, i64 0), i32* nonnull %2)
  %6 = load i32, i32* %2, align 4, !tbaa !7
  %7 = icmp sgt i32 %6, 0
  br i1 %7, label %10, label %63

8:                                                ; preds = %10
  %9 = icmp sgt i32 %15, 0
  br i1 %9, label %18, label %63

10:                                               ; preds = %0, %10
  %11 = phi i64 [ %14, %10 ], [ 0, %0 ]
  %12 = getelementptr inbounds [100 x i32], [100 x i32]* %1, i64 0, i64 %11
  %13 = call i32 (i8*, ...) @__isoc99_scanf(i8* getelementptr inbounds ([3 x i8], [3 x i8]* @.str, i64 0, i64 0), i32* nonnull %12)
  %14 = add nuw nsw i64 %11, 1
  %15 = load i32, i32* %2, align 4, !tbaa !7
  %16 = sext i32 %15 to i64
  %17 = icmp slt i64 %14, %16
  br i1 %17, label %10, label %8, !llvm.loop !12

18:                                               ; preds = %8, %58
  %19 = phi i64 [ %59, %58 ], [ 0, %8 ]
  %20 = getelementptr inbounds [100 x i32], [100 x i32]* %1, i64 0, i64 %19
  %21 = load i32, i32* %20, align 4, !tbaa !7
  %22 = icmp sgt i32 %21, 2
  br i1 %22, label %23, label %30

23:                                               ; preds = %18, %27
  %24 = phi i32 [ %28, %27 ], [ 2, %18 ]
  %25 = srem i32 %21, %24
  %26 = icmp eq i32 %25, 0
  br i1 %26, label %30, label %27

27:                                               ; preds = %23
  %28 = add nuw nsw i32 %24, 1
  %29 = icmp eq i32 %28, %21
  br i1 %29, label %30, label %23, !llvm.loop !5

30:                                               ; preds = %23, %27, %18
  %31 = phi i32 [ 2, %18 ], [ %21, %27 ], [ %24, %23 ]
  %32 = sdiv i32 %21, 2
  %33 = icmp sgt i32 %31, %32
  br i1 %33, label %36, label %34

34:                                               ; preds = %30
  %35 = icmp sgt i32 %21, 5
  br i1 %35, label %38, label %55

36:                                               ; preds = %30
  %37 = call i32 @puts(i8* nonnull dereferenceable(1) getelementptr inbounds ([2 x i8], [2 x i8]* @str, i64 0, i64 0))
  br label %58

38:                                               ; preds = %34, %49
  %39 = phi i32 [ %50, %49 ], [ %21, %34 ]
  %40 = phi i32 [ %51, %49 ], [ 1, %34 ]
  %41 = phi i32 [ %52, %49 ], [ 2, %34 ]
  %42 = srem i32 %39, %41
  %43 = sdiv i32 %39, %41
  %44 = icmp eq i32 %42, 0
  br i1 %44, label %45, label %49

45:                                               ; preds = %38
  store i32 0, i32* @sum, align 4, !tbaa !7
  call void @fun(i32 %43, i32 %41)
  %46 = load i32, i32* @sum, align 4, !tbaa !7
  %47 = add nsw i32 %46, %40
  %48 = load i32, i32* %20, align 4, !tbaa !7
  br label %49

49:                                               ; preds = %38, %45
  %50 = phi i32 [ %48, %45 ], [ %39, %38 ]
  %51 = phi i32 [ %47, %45 ], [ %40, %38 ]
  %52 = add nuw nsw i32 %41, 1
  %53 = sdiv i32 %50, 2
  %54 = icmp slt i32 %52, %53
  br i1 %54, label %38, label %55, !llvm.loop !13

55:                                               ; preds = %49, %34
  %56 = phi i32 [ 1, %34 ], [ %51, %49 ]
  %57 = call i32 (i8*, ...) @printf(i8* nonnull dereferenceable(1) getelementptr inbounds ([4 x i8], [4 x i8]* @.str.2, i64 0, i64 0), i32 %56)
  br label %58

58:                                               ; preds = %36, %55
  %59 = add nuw nsw i64 %19, 1
  %60 = load i32, i32* %2, align 4, !tbaa !7
  %61 = sext i32 %60 to i64
  %62 = icmp slt i64 %59, %61
  br i1 %62, label %18, label %63, !llvm.loop !14

63:                                               ; preds = %58, %0, %8
  call void @llvm.lifetime.end.p0i8(i64 4, i8* nonnull %4) #6
  call void @llvm.lifetime.end.p0i8(i64 400, i8* nonnull %3) #6
  ret void
}

; Function Attrs: nofree nounwind
declare noundef i32 @__isoc99_scanf(i8* nocapture noundef readonly, ...) local_unnamed_addr #4

; Function Attrs: nofree nounwind
declare noundef i32 @printf(i8* nocapture noundef readonly, ...) local_unnamed_addr #4

; Function Attrs: nofree nounwind
declare noundef i32 @puts(i8* nocapture noundef readonly) local_unnamed_addr #5


!llvm.module.flags = !{!0, !1, !2, !3}
!llvm.ident = !{!4}

!0 = !{i32 1, !"wchar_size", i32 4}
!1 = !{i32 7, !"PIC Level", i32 2}
!2 = !{i32 7, !"PIE Level", i32 2}
!3 = !{i32 7, !"uwtable", i32 1}
!4 = !{!"clang version 13.0.0"}
!5 = distinct !{!5, !6}
!6 = !{!"llvm.loop.mustprogress"}
!7 = !{!8, !8, i64 0}
!8 = !{!"int", !9, i64 0}
!9 = !{!"omnipotent char", !10, i64 0}
!10 = !{!"Simple C/C++ TBAA"}
!11 = distinct !{!11, !6}
!12 = distinct !{!12, !6}
!13 = distinct !{!13, !6}
!14 = distinct !{!14, !6}
